; Function Attrs: mustprogress noinline uwtable
define internal fastcc noundef ptr @_ZN6google17MakeCheckOpStringIPN5folly6detail15EventBasePoller6HandleEPNS2_12_GLOBAL__N_119EventBasePollerImpl5EventEEEPNSt7__cxx1112basic_stringIcSt11char_traitsIcESaIcEEERKT_RKT0_PKc(ptr noundef nonnull readonly align 8 captures(none) dereferenceable(8) %0, ptr noundef nonnull readonly align 8 captures(none) dereferenceable(8) %1) unnamed_addr #25 personality ptr @__gxx_personality_v0 {
  %3 = alloca %"class.google::base::CheckOpMessageBuilder", align 8
  call void @llvm.lifetime.start.p0(i64 8, ptr nonnull %3) #26
  call void @_ZN6google4base21CheckOpMessageBuilderC1EPKc(ptr noundef nonnull align 8 dereferenceable(8) %3, ptr noundef nonnull @.str.35)
  %4 = load ptr, ptr %3, align 8, !tbaa !189
  %5 = load ptr, ptr %0, align 8, !tbaa !174
  %6 = invoke noundef nonnull align 8 dereferenceable(8) ptr @_ZNSo9_M_insertIPKvEERSoT_(ptr noundef nonnull align 8 dereferenceable(8) %4, ptr noundef %5)
          to label %_ZN6google22MakeCheckOpValueStringIPN5folly6detail15EventBasePoller6HandleEEEvPSoRKT_.exit unwind label %12

_ZN6google22MakeCheckOpValueStringIPN5folly6detail15EventBasePoller6HandleEEEvPSoRKT_.exit: ; preds = %2
  %7 = invoke noundef ptr @_ZN6google4base21CheckOpMessageBuilder7ForVar2Ev(ptr noundef nonnull align 8 dereferenceable(8) %3)
          to label %8 unwind label %12

8:                                                ; preds = %_ZN6google22MakeCheckOpValueStringIPN5folly6detail15EventBasePoller6HandleEEEvPSoRKT_.exit
  %.val = load ptr, ptr %1, align 8, !tbaa !154
  %9 = invoke noundef nonnull align 8 dereferenceable(8) ptr @_ZNSo9_M_insertIPKvEERSoT_(ptr noundef nonnull align 8 dereferenceable(8) %7, ptr noundef %.val)
          to label %_ZN6google22MakeCheckOpValueStringIPN5folly6detail12_GLOBAL__N_119EventBasePollerImpl5EventEEEvPSoRKT_.exit unwind label %12

_ZN6google22MakeCheckOpValueStringIPN5folly6detail12_GLOBAL__N_119EventBasePollerImpl5EventEEEvPSoRKT_.exit: ; preds = %8
  %10 = invoke noundef ptr @_ZN6google4base21CheckOpMessageBuilder9NewStringB5cxx11Ev(ptr noundef nonnull align 8 dereferenceable(8) %3)
          to label %11 unwind label %12

11:                                               ; preds = %_ZN6google22MakeCheckOpValueStringIPN5folly6detail12_GLOBAL__N_119EventBasePollerImpl5EventEEEvPSoRKT_.exit
  call void @_ZN6google4base21CheckOpMessageBuilderD1Ev(ptr noundef nonnull align 8 dereferenceable(8) %3) #26
  call void @llvm.lifetime.end.p0(i64 8, ptr nonnull %3) #26
  ret ptr %10

12:                                               ; preds = %8, %2, %_ZN6google22MakeCheckOpValueStringIPN5folly6detail12_GLOBAL__N_119EventBasePollerImpl5EventEEEvPSoRKT_.exit, %_ZN6google22MakeCheckOpValueStringIPN5folly6detail15EventBasePoller6HandleEEEvPSoRKT_.exit
  %13 = landingpad { ptr, i32 }
          cleanup
  call void @_ZN6google4base21CheckOpMessageBuilderD1Ev(ptr noundef nonnull align 8 dereferenceable(8) %3) #26
  call void @llvm.lifetime.end.p0(i64 8, ptr nonnull %3) #26
  resume { ptr, i32 } %13
}